; Function Attrs: null_pointer_is_valid sspstrong uwtable
define internal range(i32 0, 3) i32 @match_regex(ptr noundef captures(none) %0, ptr noundef readonly captures(none) %1, ptr noundef %2, ptr readnone captures(none) %3) #1 {
  %5 = alloca i32, align 4
  %6 = alloca ptr, align 8
  %7 = alloca [2 x i64], align 16
  call void @llvm.lifetime.start.p0(i64 16, ptr nonnull %7) #23
  call void @llvm.memset.p0.i64(ptr noundef nonnull align 16 dereferenceable(16) %7, i8 0, i64 16, i1 false)
  call void @llvm.lifetime.start.p0(i64 4, ptr nonnull %5) #23
  call void @llvm.lifetime.start.p0(i64 8, ptr nonnull %6) #23
  %8 = getelementptr inbounds nuw i8, ptr %0, i64 224
  %9 = load ptr, ptr %8, align 8
  %10 = getelementptr inbounds nuw i8, ptr %1, i64 24
  %11 = load i64, ptr %10, align 8
  %12 = call zeroext i1 @wtap_seek_read(ptr noundef %9, i64 noundef %11, ptr noundef %2, ptr noundef nonnull %5, ptr noundef nonnull %6)
  br i1 %12, label %17, label %cf_read_record.exit

cf_read_record.exit:                              ; preds = %4
  %13 = getelementptr inbounds nuw i8, ptr %0, i64 16
  %14 = load ptr, ptr %13, align 8
  %15 = load i32, ptr %5, align 4
  %16 = load ptr, ptr %6, align 8
  call void @report_cfile_read_failure(ptr noundef %14, i32 noundef %15, ptr noundef %16)
  call void @llvm.lifetime.end.p0(i64 8, ptr nonnull %6) #23
  call void @llvm.lifetime.end.p0(i64 4, ptr nonnull %5) #23
  br label %43

17:                                               ; preds = %4
  call void @llvm.lifetime.end.p0(i64 8, ptr nonnull %6) #23
  call void @llvm.lifetime.end.p0(i64 4, ptr nonnull %5) #23
  %18 = getelementptr inbounds nuw i8, ptr %0, i64 188
  %19 = load i32, ptr %18, align 4
  %.not = icmp eq i32 %19, 0
  %20 = getelementptr inbounds nuw i8, ptr %0, i64 184
  %21 = load i32, ptr %20, align 8
  %.not17 = icmp eq i32 %21, 0
  %or.cond = select i1 %.not, i1 %.not17, i1 false
  %22 = add i32 %21, 1
  %23 = zext i32 %22 to i64
  %.0 = select i1 %or.cond, i64 0, i64 %23
  %24 = getelementptr inbounds nuw i8, ptr %1, i64 12
  %25 = load i32, ptr %24, align 4
  %26 = zext i32 %25 to i64
  %27 = icmp samesign ult i64 %.0, %26
  br i1 %27, label %28, label %43

28:                                               ; preds = %17
  %29 = getelementptr inbounds nuw i8, ptr %0, i64 200
  %30 = load ptr, ptr %29, align 8
  %31 = getelementptr inbounds nuw i8, ptr %2, i64 280
  %.val = load ptr, ptr %31, align 8
  %32 = getelementptr i8, ptr %2, i64 296
  %.val18 = load i64, ptr %32, align 8
  %33 = getelementptr i8, ptr %.val, i64 %.val18
  %34 = call zeroext i1 @ws_regex_matches_pos(ptr noundef %30, ptr noundef %33, i64 noundef %26, i64 noundef %.0, ptr noundef nonnull %7)
  br i1 %34, label %35, label %43

35:                                               ; preds = %28
  %36 = load i64, ptr %7, align 16
  %37 = trunc i64 %36 to i32
  %38 = getelementptr inbounds nuw i8, ptr %0, i64 184
  store i32 %37, ptr %38, align 8
  %39 = getelementptr inbounds nuw i8, ptr %7, i64 8
  %40 = load i64, ptr %39, align 8
  %41 = sub i64 %40, %36
  %42 = trunc i64 %41 to i32
  store i32 %42, ptr %18, align 4
  br label %43

43:                                               ; preds = %cf_read_record.exit, %17, %35, %28
  %.016 = phi i32 [ 2, %cf_read_record.exit ], [ 1, %35 ], [ 0, %28 ], [ 0, %17 ]
  call void @llvm.lifetime.end.p0(i64 16, ptr nonnull %7) #23
  ret i32 %.016
}